target datalayout = "e-m:e-p270:32:32-p271:32:32-p272:64:64-i64:64-i128:128-f80:128-n8:16:32:64-S128"
target triple = "x86_64-pc-linux-gnu"

%struct.gmx_ana_selvalue_t = type { i32, i32, %union.anon, i32 }
%union.anon = type { ptr }
%struct.t_methoddata_distance = type { float, [4 x i8], %struct.gmx_ana_pos_t, %"class.gmx::AnalysisNeighborhood", %"class.gmx::AnalysisNeighborhoodSearch" }
%struct.gmx_ana_pos_t = type <{ ptr, ptr, ptr, %struct.gmx_ana_indexmap_t, i32, [4 x i8] }>
%struct.gmx_ana_indexmap_t = type { i32, ptr, ptr, %struct.t_blocka, ptr, %struct.t_blocka, i8 }
%struct.t_blocka = type { i32, ptr, i32, ptr, i32, i32 }
%"class.gmx::AnalysisNeighborhood" = type { %"class.std::unique_ptr" }
%"class.std::unique_ptr" = type { %"struct.std::__uniq_ptr_data" }
%"struct.std::__uniq_ptr_data" = type { %"class.std::__uniq_ptr_impl" }
%"class.std::__uniq_ptr_impl" = type { %"class.std::tuple" }
%"class.std::tuple" = type { %"struct.std::_Tuple_impl" }
%"struct.std::_Tuple_impl" = type { %"struct.std::_Head_base.1" }
%"struct.std::_Head_base.1" = type { ptr }
%"class.gmx::AnalysisNeighborhoodSearch" = type { %"class.std::shared_ptr" }
%"class.std::shared_ptr" = type { %"class.std::__shared_ptr" }
%"class.std::__shared_ptr" = type { ptr, %"class.std::__shared_count" }
%"class.std::__shared_count" = type { ptr }
%"class.gmx::AnalysisNeighborhoodPositions" = type { i32, i32, ptr, ptr, ptr }
%struct.gmx_ana_index_t = type { i32, ptr, i32 }

; Function Attrs: mustprogress nounwind uwtable
define linkonce_odr void @_ZN3gmx29AnalysisNeighborhoodPositionsC2ERA3_Kf(ptr noundef nonnull align 8 dereferenceable(32) %0, ptr noundef nonnull align 4 dereferenceable(12) %1) unnamed_addr #1 comdat align 2 {
  %3 = alloca ptr, align 8
  %4 = alloca ptr, align 8
  store ptr %0, ptr %3, align 8
  store ptr %1, ptr %4, align 8
  %5 = load ptr, ptr %3, align 8
  %6 = getelementptr inbounds %"class.gmx::AnalysisNeighborhoodPositions", ptr %5, i32 0, i32 0
  store i32 1, ptr %6, align 8
  %7 = getelementptr inbounds %"class.gmx::AnalysisNeighborhoodPositions", ptr %5, i32 0, i32 1
  store i32 -1, ptr %7, align 4
  %8 = getelementptr inbounds %"class.gmx::AnalysisNeighborhoodPositions", ptr %5, i32 0, i32 2
  %9 = load ptr, ptr %4, align 8
  store ptr %9, ptr %8, align 8
  %10 = getelementptr inbounds %"class.gmx::AnalysisNeighborhoodPositions", ptr %5, i32 0, i32 3
  store ptr null, ptr %10, align 8
  %11 = getelementptr inbounds %"class.gmx::AnalysisNeighborhoodPositions", ptr %5, i32 0, i32 4
  store ptr null, ptr %11, align 8
  ret void
}

; Function Attrs: mustprogress nounwind uwtable
define linkonce_odr noundef i32 @_ZNK13gmx_ana_pos_t5countEv(ptr noundef nonnull align 8 dereferenceable(148) %0) #1 comdat align 2 {
  %2 = alloca ptr, align 8
  store ptr %0, ptr %2, align 8
  %3 = load ptr, ptr %2, align 8
  %4 = getelementptr inbounds %struct.gmx_ana_pos_t, ptr %3, i32 0, i32 3
  %5 = getelementptr inbounds %struct.gmx_ana_indexmap_t, ptr %4, i32 0, i32 3
  %6 = getelementptr inbounds %struct.t_blocka, ptr %5, i32 0, i32 0
  %7 = load i32, ptr %6, align 8
  ret i32 %7
}

; Function Attrs: mustprogress uwtable
define internal void @_ZL15evaluate_withinRKN3gmx20SelMethodEvalContextEP13gmx_ana_pos_tP18gmx_ana_selvalue_tPv(ptr noundef nonnull align 8 dereferenceable(24) %0, ptr noundef %1, ptr noundef %2, ptr noundef %3) #0 {
  %5 = alloca ptr, align 8
  %6 = alloca ptr, align 8
  %7 = alloca ptr, align 8
  %8 = alloca ptr, align 8
  %9 = alloca ptr, align 8
  %10 = alloca i32, align 4
  %11 = alloca %"class.gmx::AnalysisNeighborhoodPositions", align 8
  store ptr %0, ptr %5, align 8
  store ptr %1, ptr %6, align 8
  store ptr %2, ptr %7, align 8
  store ptr %3, ptr %8, align 8
  %12 = load ptr, ptr %8, align 8
  store ptr %12, ptr %9, align 8
  %13 = load ptr, ptr %7, align 8
  %14 = getelementptr inbounds %struct.gmx_ana_selvalue_t, ptr %13, i32 0, i32 2
  %15 = load ptr, ptr %14, align 8
  %16 = getelementptr inbounds %struct.gmx_ana_index_t, ptr %15, i32 0, i32 0
  store i32 0, ptr %16, align 8
  store i32 0, ptr %10, align 4
  br label %17

17:                                               ; preds = %39, %4
  %18 = load i32, ptr %10, align 4
  %19 = load ptr, ptr %6, align 8
  %20 = call noundef i32 @_ZNK13gmx_ana_pos_t5countEv(ptr noundef nonnull align 8 dereferenceable(148) %19)
  %21 = icmp slt i32 %18, %20
  br i1 %21, label %22, label %42

22:                                               ; preds = %17
  %23 = load ptr, ptr %9, align 8
  %24 = getelementptr inbounds %struct.t_methoddata_distance, ptr %23, i32 0, i32 4
  %25 = load ptr, ptr %6, align 8
  %26 = getelementptr inbounds %struct.gmx_ana_pos_t, ptr %25, i32 0, i32 0
  %27 = load ptr, ptr %26, align 8
  %28 = load i32, ptr %10, align 4
  %29 = sext i32 %28 to i64
  %30 = getelementptr inbounds [3 x float], ptr %27, i64 %29
  call void @_ZN3gmx29AnalysisNeighborhoodPositionsC2ERA3_Kf(ptr noundef nonnull align 8 dereferenceable(32) %11, ptr noundef nonnull align 4 dereferenceable(12) %30)
  %31 = call noundef zeroext i1 @_ZNK3gmx26AnalysisNeighborhoodSearch8isWithinERKNS_29AnalysisNeighborhoodPositionsE(ptr noundef nonnull align 8 dereferenceable(16) %24, ptr noundef nonnull align 8 dereferenceable(32) %11)
  br i1 %31, label %32, label %38

32:                                               ; preds = %22
  %33 = load ptr, ptr %7, align 8
  %34 = getelementptr inbounds %struct.gmx_ana_selvalue_t, ptr %33, i32 0, i32 2
  %35 = load ptr, ptr %34, align 8
  %36 = load ptr, ptr %6, align 8
  %37 = load i32, ptr %10, align 4
  call void @_Z24gmx_ana_pos_add_to_groupP15gmx_ana_index_tP13gmx_ana_pos_ti(ptr noundef %35, ptr noundef %36, i32 noundef %37)
  br label %38

38:                                               ; preds = %32, %22
  br label %39

39:                                               ; preds = %38
  %40 = load i32, ptr %10, align 4
  %41 = add nsw i32 %40, 1
  store i32 %41, ptr %10, align 4
  br label %17, !llvm.loop !8

42:                                               ; preds = %17
  ret void
}