; Function Attrs: mustprogress uwtable
define internal void @_ZL15evaluate_withinRKN3gmx20SelMethodEvalContextEP13gmx_ana_pos_tP18gmx_ana_selvalue_tPv(ptr nocapture nonnull readnone align 8 %0, ptr noundef %1, ptr nocapture noundef readonly %2, ptr noundef %3) #0 {
  %5 = alloca %"class.gmx::AnalysisNeighborhoodPositions", align 8
  %6 = getelementptr inbounds i8, ptr %2, i64 8
  %7 = load ptr, ptr %6, align 8
  store i32 0, ptr %7, align 8
  %8 = getelementptr inbounds i8, ptr %1, i64 48
  %9 = load i32, ptr %8, align 8
  %10 = icmp sgt i32 %9, 0
  br i1 %10, label %.lr.ph, label %._crit_edge

.lr.ph:                                           ; preds = %4
  %11 = getelementptr inbounds i8, ptr %3, i64 168
  %12 = getelementptr inbounds i8, ptr %5, i64 4
  %13 = getelementptr inbounds i8, ptr %5, i64 8
  %14 = getelementptr inbounds i8, ptr %5, i64 16
  br label %15

15:                                               ; preds = %.lr.ph, %22
  %indvars.iv = phi i64 [ 0, %.lr.ph ], [ %indvars.iv.next, %22 ]
  %16 = load ptr, ptr %1, align 8
  %17 = getelementptr inbounds [3 x float], ptr %16, i64 %indvars.iv
  store i32 1, ptr %5, align 8
  store i32 -1, ptr %12, align 4
  store ptr %17, ptr %13, align 8
  call void @llvm.memset.p0.i64(ptr noundef nonnull align 8 dereferenceable(16) %14, i8 0, i64 16, i1 false)
  %18 = call noundef zeroext i1 @_ZNK3gmx26AnalysisNeighborhoodSearch8isWithinERKNS_29AnalysisNeighborhoodPositionsE(ptr noundef nonnull align 8 dereferenceable(16) %11, ptr noundef nonnull align 8 dereferenceable(32) %5)
  br i1 %18, label %19, label %22

19:                                               ; preds = %15
  %20 = load ptr, ptr %6, align 8
  %21 = trunc nuw nsw i64 %indvars.iv to i32
  call void @_Z24gmx_ana_pos_add_to_groupP15gmx_ana_index_tP13gmx_ana_pos_ti(ptr noundef %20, ptr noundef nonnull %1, i32 noundef %21)
  br label %22

22:                                               ; preds = %15, %19
  %indvars.iv.next = add nuw nsw i64 %indvars.iv, 1
  %23 = load i32, ptr %8, align 8
  %24 = sext i32 %23 to i64
  %25 = icmp slt i64 %indvars.iv.next, %24
  br i1 %25, label %15, label %._crit_edge, !llvm.loop !8

._crit_edge:                                      ; preds = %22, %4
  ret void
}